target datalayout = "e-m:e-p270:32:32-p271:32:32-p272:64:64-i64:64-i128:128-f80:128-n8:16:32:64-S128"
target triple = "x86_64-pc-linux-gnu"

%struct.avifPropertyArray = type { ptr, i32, i32, i32 }
%struct.avifProperty = type { [4 x i8], %union.anon }
%union.anon = type { %struct.avifColourInformationBox, [24 x i8] }
%struct.avifColourInformationBox = type { i32, i64, i64, i32, i16, i16, i16, i32 }

; Function Attrs: nounwind uwtable
define internal ptr @avifPropertyArrayFind(ptr noundef %0, ptr noundef %1) #0 {
  %3 = alloca ptr, align 8
  %4 = alloca ptr, align 8
  %5 = alloca ptr, align 8
  %6 = alloca i32, align 4
  %7 = alloca ptr, align 8
  store ptr %0, ptr %4, align 8
  store ptr %1, ptr %5, align 8
  store i32 0, ptr %6, align 4
  br label %8

8:                                                ; preds = %30, %2
  %9 = load i32, ptr %6, align 4
  %10 = load ptr, ptr %4, align 8
  %11 = getelementptr inbounds nuw %struct.avifPropertyArray, ptr %10, i32 0, i32 2
  %12 = load i32, ptr %11, align 4
  %13 = icmp ult i32 %9, %12
  br i1 %13, label %14, label %33

14:                                               ; preds = %8
  %15 = load ptr, ptr %4, align 8
  %16 = getelementptr inbounds nuw %struct.avifPropertyArray, ptr %15, i32 0, i32 0
  %17 = load ptr, ptr %16, align 8
  %18 = load i32, ptr %6, align 4
  %19 = zext i32 %18 to i64
  %20 = getelementptr inbounds %struct.avifProperty, ptr %17, i64 %19
  store ptr %20, ptr %7, align 8
  %21 = load ptr, ptr %7, align 8
  %22 = getelementptr inbounds nuw %struct.avifProperty, ptr %21, i32 0, i32 0
  %23 = getelementptr inbounds [4 x i8], ptr %22, i64 0, i64 0
  %24 = load ptr, ptr %5, align 8
  %25 = call i32 @memcmp(ptr noundef %23, ptr noundef %24, i64 noundef 4) #6
  %26 = icmp ne i32 %25, 0
  br i1 %26, label %29, label %27

27:                                               ; preds = %14
  %28 = load ptr, ptr %7, align 8
  store ptr %28, ptr %3, align 8
  br label %34

29:                                               ; preds = %14
  br label %30

30:                                               ; preds = %29
  %31 = load i32, ptr %6, align 4
  %32 = add i32 %31, 1
  store i32 %32, ptr %6, align 4
  br label %8, !llvm.loop !22

33:                                               ; preds = %8
  store ptr null, ptr %3, align 8
  br label %34

34:                                               ; preds = %33, %27
  %35 = load ptr, ptr %3, align 8
  ret ptr %35
}