; Function Attrs: nofree nounwind memory(read, inaccessiblemem: none) uwtable
define internal fastcc noundef ptr @avifPropertyArrayFind(ptr noundef readonly captures(none) %0, ptr noundef readonly captures(none) %1) unnamed_addr #3 {
  %3 = getelementptr inbounds nuw i8, ptr %0, i64 12
  %4 = load i32, ptr %3, align 4
  %.not12 = icmp eq i32 %4, 0
  br i1 %.not12, label %._crit_edge, label %.lr.ph

.lr.ph:                                           ; preds = %2
  %5 = load ptr, ptr %0, align 8
  %wide.trip.count = zext i32 %4 to i64
  br label %7

6:                                                ; preds = %7
  %indvars.iv.next = add nuw nsw i64 %indvars.iv, 1
  %exitcond.not = icmp eq i64 %indvars.iv.next, %wide.trip.count
  br i1 %exitcond.not, label %._crit_edge, label %7, !llvm.loop !12

7:                                                ; preds = %.lr.ph, %6
  %indvars.iv = phi i64 [ 0, %.lr.ph ], [ %indvars.iv.next, %6 ]
  %8 = getelementptr inbounds nuw %struct.avifProperty, ptr %5, i64 %indvars.iv
  %bcmp = tail call i32 @bcmp(ptr noundef nonnull dereferenceable(4) %8, ptr noundef nonnull dereferenceable(4) %1, i64 4)
  %.not = icmp eq i32 %bcmp, 0
  br i1 %.not, label %._crit_edge, label %6

._crit_edge:                                      ; preds = %7, %6, %2
  %.0 = phi ptr [ null, %2 ], [ null, %6 ], [ %8, %7 ]
  ret ptr %.0
}